target datalayout = "e-m:e-p270:32:32-p271:32:32-p272:64:64-i64:64-i128:128-f80:128-n8:16:32:64-S128"
target triple = "x86_64-pc-linux-gnu"

@.str.17 = private unnamed_addr constant [13 x i8] c"NULL pointer\00", align 1
@.str.18 = private unnamed_addr constant [10 x i8] c"Empty OID\00", align 1
@g_ascii_table = external constant ptr, align 8
@.str.19 = private unnamed_addr constant [44 x i8] c"Only digits [0-9] and \22.\22 allowed in an OID\00", align 1
@.str.20 = private unnamed_addr constant [39 x i8] c"OIDs must not be terminated with a \22.\22\00", align 1
@.str.21 = private unnamed_addr constant [99 x i8] c"OIDs must start with \220.\22 (ITU-T assigned), \221.\22 (ISO assigned) or \222.\22 (joint ISO/ITU-T assigned)\00", align 1

; Function Attrs: null_pointer_is_valid sspstrong uwtable
define hidden zeroext i1 @uat_fld_chk_oid(ptr noundef %0, ptr noundef %1, i32 noundef %2, ptr noundef %3, ptr noundef %4, ptr noundef %5) #0 {
  %7 = alloca i1, align 1
  %8 = alloca ptr, align 8
  %9 = alloca ptr, align 8
  %10 = alloca i32, align 4
  %11 = alloca ptr, align 8
  %12 = alloca ptr, align 8
  %13 = alloca ptr, align 8
  %14 = alloca i32, align 4
  %15 = alloca i32, align 4
  store ptr %0, ptr %8, align 8
  store ptr %1, ptr %9, align 8
  store i32 %2, ptr %10, align 4
  store ptr %3, ptr %11, align 8
  store ptr %4, ptr %12, align 8
  store ptr %5, ptr %13, align 8
  call void @llvm.lifetime.start.p0(i64 4, ptr %14) #13
  %16 = load ptr, ptr %13, align 8
  store ptr null, ptr %16, align 8
  %17 = load ptr, ptr %9, align 8
  %18 = icmp eq ptr %17, null
  br i1 %18, label %19, label %22

19:                                               ; preds = %6
  %20 = call noalias ptr @g_strdup(ptr noundef @.str.17)
  %21 = load ptr, ptr %13, align 8
  store ptr %20, ptr %21, align 8
  store i1 false, ptr %7, align 1
  store i32 1, ptr %15, align 4
  br label %104

22:                                               ; preds = %6
  %23 = load i32, ptr %10, align 4
  %24 = icmp eq i32 %23, 0
  br i1 %24, label %25, label %28

25:                                               ; preds = %22
  %26 = call noalias ptr @g_strdup(ptr noundef @.str.18)
  %27 = load ptr, ptr %13, align 8
  store ptr %26, ptr %27, align 8
  store i1 false, ptr %7, align 1
  store i32 1, ptr %15, align 4
  br label %104

28:                                               ; preds = %22
  store i32 0, ptr %14, align 4
  br label %29

29:                                               ; preds = %58, %28
  %30 = load i32, ptr %14, align 4
  %31 = load i32, ptr %10, align 4
  %32 = icmp ult i32 %30, %31
  br i1 %32, label %33, label %61

33:                                               ; preds = %29
  %34 = load ptr, ptr @g_ascii_table, align 8
  %35 = load ptr, ptr %9, align 8
  %36 = load i32, ptr %14, align 4
  %37 = zext i32 %36 to i64
  %38 = getelementptr i8, ptr %35, i64 %37
  %39 = load i8, ptr %38, align 1
  %40 = zext i8 %39 to i64
  %41 = getelementptr i16, ptr %34, i64 %40
  %42 = load i16, ptr %41, align 2
  %43 = zext i16 %42 to i32
  %44 = and i32 %43, 8
  %45 = icmp ne i32 %44, 0
  br i1 %45, label %57, label %46

46:                                               ; preds = %33
  %47 = load ptr, ptr %9, align 8
  %48 = load i32, ptr %14, align 4
  %49 = zext i32 %48 to i64
  %50 = getelementptr i8, ptr %47, i64 %49
  %51 = load i8, ptr %50, align 1
  %52 = sext i8 %51 to i32
  %53 = icmp eq i32 %52, 46
  br i1 %53, label %57, label %54

54:                                               ; preds = %46
  %55 = call noalias ptr @g_strdup(ptr noundef @.str.19)
  %56 = load ptr, ptr %13, align 8
  store ptr %55, ptr %56, align 8
  store i1 false, ptr %7, align 1
  store i32 1, ptr %15, align 4
  br label %104

57:                                               ; preds = %46, %33
  br label %58

58:                                               ; preds = %57
  %59 = load i32, ptr %14, align 4
  %60 = add i32 %59, 1
  store i32 %60, ptr %14, align 4
  br label %29, !llvm.loop !31

61:                                               ; preds = %29
  %62 = load ptr, ptr %9, align 8
  %63 = load i32, ptr %10, align 4
  %64 = sub i32 %63, 1
  %65 = zext i32 %64 to i64
  %66 = getelementptr i8, ptr %62, i64 %65
  %67 = load i8, ptr %66, align 1
  %68 = sext i8 %67 to i32
  %69 = icmp eq i32 %68, 46
  br i1 %69, label %70, label %73

70:                                               ; preds = %61
  %71 = call noalias ptr @g_strdup(ptr noundef @.str.20)
  %72 = load ptr, ptr %13, align 8
  store ptr %71, ptr %72, align 8
  store i1 false, ptr %7, align 1
  store i32 1, ptr %15, align 4
  br label %104

73:                                               ; preds = %61
  %74 = load ptr, ptr %9, align 8
  %75 = load i8, ptr %74, align 1
  %76 = sext i8 %75 to i32
  %77 = icmp eq i32 %76, 48
  br i1 %77, label %88, label %78

78:                                               ; preds = %73
  %79 = load ptr, ptr %9, align 8
  %80 = load i8, ptr %79, align 1
  %81 = sext i8 %80 to i32
  %82 = icmp eq i32 %81, 49
  br i1 %82, label %88, label %83

83:                                               ; preds = %78
  %84 = load ptr, ptr %9, align 8
  %85 = load i8, ptr %84, align 1
  %86 = sext i8 %85 to i32
  %87 = icmp eq i32 %86, 50
  br i1 %87, label %88, label %97

88:                                               ; preds = %83, %78, %73
  %89 = load i32, ptr %10, align 4
  %90 = icmp ugt i32 %89, 1
  br i1 %90, label %91, label %97

91:                                               ; preds = %88
  %92 = load ptr, ptr %9, align 8
  %93 = getelementptr i8, ptr %92, i64 1
  %94 = load i8, ptr %93, align 1
  %95 = sext i8 %94 to i32
  %96 = icmp eq i32 %95, 46
  br i1 %96, label %100, label %97

97:                                               ; preds = %91, %88, %83
  %98 = call noalias ptr @g_strdup(ptr noundef @.str.21)
  %99 = load ptr, ptr %13, align 8
  store ptr %98, ptr %99, align 8
  store i1 false, ptr %7, align 1
  store i32 1, ptr %15, align 4
  br label %104

100:                                              ; preds = %91
  %101 = load ptr, ptr %13, align 8
  %102 = load ptr, ptr %101, align 8
  %103 = icmp eq ptr %102, null
  store i1 %103, ptr %7, align 1
  store i32 1, ptr %15, align 4
  br label %104

104:                                              ; preds = %100, %97, %70, %54, %25, %19
  call void @llvm.lifetime.end.p0(i64 4, ptr %14) #13
  %105 = load i1, ptr %7, align 1
  ret i1 %105
}