; Function Attrs: null_pointer_is_valid sspstrong uwtable
define hidden noundef zeroext i1 @uat_fld_chk_oid(ptr noundef readnone captures(none) %0, ptr noundef readonly captures(address_is_null) %1, i32 noundef %2, ptr noundef readnone captures(none) %3, ptr noundef readnone captures(none) %4, ptr noundef writeonly captures(none) initializes((0, 8)) %5) local_unnamed_addr #0 {
  store ptr null, ptr %5, align 8
  %7 = icmp eq ptr %1, null
  br i1 %7, label %.sink.split, label %8

8:                                                ; preds = %6
  %9 = icmp eq i32 %2, 0
  br i1 %9, label %.sink.split, label %.preheader

.preheader:                                       ; preds = %8
  %10 = load ptr, ptr @g_ascii_table, align 8
  %wide.trip.count = zext i32 %2 to i64
  br label %12

11:                                               ; preds = %12
  %indvars.iv.next = add nuw nsw i64 %indvars.iv, 1
  %exitcond.not = icmp eq i64 %indvars.iv.next, %wide.trip.count
  br i1 %exitcond.not, label %20, label %12, !llvm.loop !32

12:                                               ; preds = %.preheader, %11
  %indvars.iv = phi i64 [ 0, %.preheader ], [ %indvars.iv.next, %11 ]
  %13 = getelementptr i8, ptr %1, i64 %indvars.iv
  %14 = load i8, ptr %13, align 1
  %15 = zext i8 %14 to i64
  %16 = getelementptr i16, ptr %10, i64 %15
  %17 = load i16, ptr %16, align 2
  %18 = and i16 %17, 8
  %.not = icmp ne i16 %18, 0
  %19 = icmp eq i8 %14, 46
  %or.cond29 = or i1 %19, %.not
  br i1 %or.cond29, label %11, label %.sink.split

20:                                               ; preds = %11
  %21 = add i32 %2, -1
  %22 = zext i32 %21 to i64
  %23 = getelementptr i8, ptr %1, i64 %22
  %24 = load i8, ptr %23, align 1
  %25 = icmp eq i8 %24, 46
  br i1 %25, label %.sink.split, label %26

26:                                               ; preds = %20
  %27 = load i8, ptr %1, align 1
  %28 = and i8 %27, -2
  %switch = icmp eq i8 %28, 48
  br i1 %switch, label %32, label %29

29:                                               ; preds = %26
  %30 = icmp eq i8 %27, 50
  %31 = icmp ne i32 %2, 1
  %or.cond = and i1 %31, %30
  br i1 %or.cond, label %33, label %.sink.split

32:                                               ; preds = %26
  %.old1.not = icmp eq i32 %2, 1
  br i1 %.old1.not, label %.sink.split, label %33

33:                                               ; preds = %29, %32
  %34 = getelementptr i8, ptr %1, i64 1
  %35 = load i8, ptr %34, align 1
  %36 = icmp eq i8 %35, 46
  br i1 %36, label %38, label %.sink.split

.sink.split:                                      ; preds = %12, %29, %32, %33, %20, %8, %6
  %.str.21.sink = phi ptr [ @.str.17, %6 ], [ @.str.18, %8 ], [ @.str.20, %20 ], [ @.str.21, %33 ], [ @.str.21, %32 ], [ @.str.21, %29 ], [ @.str.19, %12 ]
  %37 = tail call noalias ptr @g_strdup(ptr noundef nonnull %.str.21.sink)
  store ptr %37, ptr %5, align 8
  br label %38

38:                                               ; preds = %.sink.split, %33
  %.025 = phi i1 [ true, %33 ], [ false, %.sink.split ]
  ret i1 %.025
}